target datalayout = "e-m:e-p270:32:32-p271:32:32-p272:64:64-i64:64-i128:128-f80:128-n8:16:32:64-S128"
target triple = "x86_64-pc-linux-gnu"

%struct.Curl_llist = type { ptr, ptr, ptr, i64 }
%struct.curltime = type { i64, i32 }
%struct.Curl_llist_node = type { ptr, ptr, ptr, ptr }
%struct.Curl_easy = type { i32, i64, i64, ptr, %struct.Curl_llist_node, %struct.Curl_llist_node, i32, i32, %struct.Curl_message, %struct.easy_pollset, %struct.Names, ptr, ptr, ptr, ptr, %struct.SingleRequest, %struct.UserDefined, ptr, ptr, ptr, %struct.Progress, %struct.UrlState, ptr, %struct.PureInfo, %struct.curl_tlssessioninfo }
%struct.Curl_message = type { %struct.Curl_llist_node, %struct.CURLMsg }
%struct.CURLMsg = type { i32, ptr, %union.anon }
%union.anon = type { ptr }
%struct.easy_pollset = type { [5 x i32], i32, [5 x i8] }
%struct.Names = type { ptr, i32 }
%struct.SingleRequest = type <{ i64, i64, i64, i64, %struct.curltime, i32, i32, i32, i32, i64, i32, i32, i8, i8, [2 x i8], i32, ptr, ptr, %struct.bufq, i64, i64, ptr, ptr, %union.anon.0, ptr, i8, i32, [3 x i8] }>
%struct.bufq = type { ptr, ptr, ptr, ptr, i64, i64, i64, i32 }
%union.anon.0 = type { ptr }
%struct.UserDefined = type <{ ptr, ptr, ptr, ptr, ptr, ptr, i64, i64, i64, ptr, ptr, i64, ptr, ptr, ptr, ptr, ptr, ptr, ptr, ptr, ptr, ptr, ptr, ptr, ptr, ptr, ptr, ptr, ptr, ptr, ptr, ptr, ptr, ptr, ptr, i64, i64, i64, i64, i64, i64, i64, i64, i64, ptr, ptr, %struct.curl_mimepart, ptr, ptr, ptr, i64, %struct.ssl_config_data, %struct.ssl_config_data, ptr, i16, i8, i8, %struct.ssl_general_config, i32, i32, i32, [4 x i8], ptr, ptr, i64, i32, i8, i8, i8, i8, ptr, ptr, ptr, i32, [4 x i8], [74 x ptr], [8 x ptr], i32, i32, i32, [4 x i8], ptr, i32, [4 x i8], ptr, ptr, ptr, ptr, ptr, i32, i32, i32, i32, i32, i32, i32, i32, i64, ptr, ptr, i64, ptr, i64, ptr, ptr, ptr, ptr, i32, i16, i16, i16, i8, i8, i8, i8, i8, i8, i8, i8, i64, [6 x i8] }>
%struct.curl_mimepart = type { ptr, ptr, i32, i32, ptr, ptr, ptr, ptr, ptr, ptr, ptr, ptr, ptr, ptr, ptr, i64, %struct.mime_state, ptr, %struct.mime_encoder_state, i64 }
%struct.mime_state = type { i32, ptr, i64 }
%struct.mime_encoder_state = type { i64, i64, i64, [256 x i8] }
%struct.ssl_config_data = type { %struct.ssl_primary_config, i64, ptr, ptr, ptr, ptr, ptr, ptr, ptr, i16 }
%struct.ssl_primary_config = type { ptr, ptr, ptr, ptr, ptr, ptr, ptr, ptr, ptr, ptr, ptr, ptr, ptr, ptr, i8, i32, i8, i8 }
%struct.ssl_general_config = type { i32 }
%struct.Progress = type { i64, %struct.pgrs_dir, %struct.pgrs_dir, i64, i64, i32, i32, i64, i64, i64, i64, i64, i64, i64, i64, i64, %struct.curltime, %struct.curltime, %struct.curltime, %struct.curltime, %struct.curltime, [6 x i64], [6 x %struct.curltime], i32, i8 }
%struct.pgrs_dir = type { i64, i64, i64, %struct.pgrs_measure }
%struct.pgrs_measure = type { %struct.curltime, i64 }
%struct.UrlState = type { %struct.curltime, i64, i64, %struct.dynbuf, ptr, i64, ptr, i32, i32, i32, ptr, i32, i64, i32, ptr, %struct.digestdata, %struct.digestdata, %struct.auth, %struct.auth, %struct.Curl_async, ptr, i8, %struct.curltime, %struct.Curl_tree, %struct.Curl_llist, [15 x %struct.time_node], ptr, ptr, i64, i64, i64, i64, [32 x i8], i64, ptr, ptr, ptr, %struct.urlpieces, ptr, ptr, ptr, ptr, ptr, i64, %struct.dynbuf, %struct.Curl_llist, [2 x %struct.curl_header], ptr, i32, ptr, ptr, %struct.store_netrc, %struct.dynamically_allocated_data, i8, i8, i8, i8, i32 }
%struct.digestdata = type { ptr, ptr, ptr, ptr, ptr, ptr, i32, i8, i8 }
%struct.auth = type { i64, i64, i64, i8 }
%struct.Curl_async = type { ptr, ptr, ptr, ptr, i32, i32, i8 }
%struct.Curl_tree = type { ptr, ptr, ptr, ptr, %struct.curltime, ptr }
%struct.time_node = type { %struct.Curl_llist_node, %struct.curltime, i32 }
%struct.urlpieces = type { ptr, ptr, ptr, ptr, ptr, ptr, ptr, ptr }
%struct.dynbuf = type { ptr, i64, i64, i64 }
%struct.curl_header = type { ptr, ptr, i64, i64, i32, ptr }
%struct.store_netrc = type { %struct.dynbuf, ptr, i8 }
%struct.dynamically_allocated_data = type { ptr, ptr, ptr, ptr, ptr, ptr, ptr, ptr, ptr, ptr, ptr, ptr, ptr, ptr }
%struct.PureInfo = type { i32, i32, i32, i64, i64, i64, i64, i64, i64, i64, ptr, ptr, i64, i32, %struct.ip_quadruple, i32, ptr, i32, %struct.curl_certinfo, i32, i8 }
%struct.ip_quadruple = type { [46 x i8], [46 x i8], i32, i32 }
%struct.curl_certinfo = type { i32, ptr }
%struct.curl_tlssessioninfo = type { i32, ptr }
%struct.curl_trc_feat = type { ptr, i32 }

@.str.12 = private unnamed_addr constant [41 x i8] c"multi_getsock: unexpected multi state %d\00", align 1
@.str.13 = private unnamed_addr constant [60 x i8] c"WARNING: no socket in pollset or timer, transfer may stall!\00", align 1

; Function Attrs: nounwind uwtable
define internal void @multi_getsock(ptr noundef %0, ptr noundef %1) #0 {
  %3 = alloca ptr, align 8
  %4 = alloca ptr, align 8
  %5 = alloca i8, align 1
  %6 = alloca i32, align 4
  store ptr %0, ptr %3, align 8, !tbaa !43
  store ptr %1, ptr %4, align 8, !tbaa !161
  call void @llvm.lifetime.start.p0(i64 1, ptr %5) #9
  store i8 1, ptr %5, align 1, !tbaa !118
  %7 = load ptr, ptr %3, align 8, !tbaa !43
  %8 = load ptr, ptr %4, align 8, !tbaa !161
  call void @Curl_pollset_reset(ptr noundef %7, ptr noundef %8)
  %9 = load ptr, ptr %3, align 8, !tbaa !43
  %10 = getelementptr inbounds nuw %struct.Curl_easy, ptr %9, i32 0, i32 3
  %11 = load ptr, ptr %10, align 8, !tbaa !116
  %12 = icmp ne ptr %11, null
  br i1 %12, label %14, label %13

13:                                               ; preds = %2
  store i32 1, ptr %6, align 4
  br label %116

14:                                               ; preds = %2
  %15 = load ptr, ptr %3, align 8, !tbaa !43
  %16 = getelementptr inbounds nuw %struct.Curl_easy, ptr %15, i32 0, i32 6
  %17 = load i32, ptr %16, align 8, !tbaa !124
  switch i32 %17, label %49 [
    i32 0, label %18
    i32 1, label %18
    i32 2, label %18
    i32 3, label %18
    i32 4, label %19
    i32 5, label %22
    i32 6, label %22
    i32 7, label %27
    i32 8, label %27
    i32 9, label %32
    i32 10, label %32
    i32 11, label %37
    i32 12, label %42
    i32 13, label %42
    i32 14, label %47
    i32 15, label %48
    i32 16, label %48
    i32 17, label %48
  ]

18:                                               ; preds = %14, %14, %14, %14
  store i8 0, ptr %5, align 1, !tbaa !118
  br label %57

19:                                               ; preds = %14
  %20 = load ptr, ptr %3, align 8, !tbaa !43
  %21 = load ptr, ptr %4, align 8, !tbaa !161
  call void @Curl_pollset_add_socks(ptr noundef %20, ptr noundef %21, ptr noundef @Curl_resolv_getsock)
  store i8 0, ptr %5, align 1, !tbaa !118
  br label %57

22:                                               ; preds = %14, %14
  %23 = load ptr, ptr %3, align 8, !tbaa !43
  %24 = load ptr, ptr %4, align 8, !tbaa !161
  call void @Curl_pollset_add_socks(ptr noundef %23, ptr noundef %24, ptr noundef @connecting_getsock)
  %25 = load ptr, ptr %3, align 8, !tbaa !43
  %26 = load ptr, ptr %4, align 8, !tbaa !161
  call void @Curl_conn_adjust_pollset(ptr noundef %25, ptr noundef %26)
  br label %57

27:                                               ; preds = %14, %14
  %28 = load ptr, ptr %3, align 8, !tbaa !43
  %29 = load ptr, ptr %4, align 8, !tbaa !161
  call void @Curl_pollset_add_socks(ptr noundef %28, ptr noundef %29, ptr noundef @protocol_getsock)
  %30 = load ptr, ptr %3, align 8, !tbaa !43
  %31 = load ptr, ptr %4, align 8, !tbaa !161
  call void @Curl_conn_adjust_pollset(ptr noundef %30, ptr noundef %31)
  br label %57

32:                                               ; preds = %14, %14
  %33 = load ptr, ptr %3, align 8, !tbaa !43
  %34 = load ptr, ptr %4, align 8, !tbaa !161
  call void @Curl_pollset_add_socks(ptr noundef %33, ptr noundef %34, ptr noundef @doing_getsock)
  %35 = load ptr, ptr %3, align 8, !tbaa !43
  %36 = load ptr, ptr %4, align 8, !tbaa !161
  call void @Curl_conn_adjust_pollset(ptr noundef %35, ptr noundef %36)
  br label %57

37:                                               ; preds = %14
  %38 = load ptr, ptr %3, align 8, !tbaa !43
  %39 = load ptr, ptr %4, align 8, !tbaa !161
  call void @Curl_pollset_add_socks(ptr noundef %38, ptr noundef %39, ptr noundef @domore_getsock)
  %40 = load ptr, ptr %3, align 8, !tbaa !43
  %41 = load ptr, ptr %4, align 8, !tbaa !161
  call void @Curl_conn_adjust_pollset(ptr noundef %40, ptr noundef %41)
  br label %57

42:                                               ; preds = %14, %14
  %43 = load ptr, ptr %3, align 8, !tbaa !43
  %44 = load ptr, ptr %4, align 8, !tbaa !161
  call void @Curl_pollset_add_socks(ptr noundef %43, ptr noundef %44, ptr noundef @perform_getsock)
  %45 = load ptr, ptr %3, align 8, !tbaa !43
  %46 = load ptr, ptr %4, align 8, !tbaa !161
  call void @Curl_conn_adjust_pollset(ptr noundef %45, ptr noundef %46)
  br label %57

47:                                               ; preds = %14
  store i8 0, ptr %5, align 1, !tbaa !118
  br label %57

48:                                               ; preds = %14, %14, %14
  store i8 0, ptr %5, align 1, !tbaa !118
  br label %57

49:                                               ; preds = %14
  %50 = load ptr, ptr %3, align 8, !tbaa !43
  %51 = load ptr, ptr %3, align 8, !tbaa !43
  %52 = getelementptr inbounds nuw %struct.Curl_easy, ptr %51, i32 0, i32 6
  %53 = load i32, ptr %52, align 8, !tbaa !124
  call void (ptr, ptr, ...) @Curl_failf(ptr noundef %50, ptr noundef @.str.12, i32 noundef %53)
  br label %54

54:                                               ; preds = %49
  br label %55

55:                                               ; preds = %54
  br label %56

56:                                               ; preds = %55
  store i8 0, ptr %5, align 1, !tbaa !118
  br label %57

57:                                               ; preds = %56, %48, %47, %42, %37, %32, %27, %22, %19, %18
  %58 = load i8, ptr %5, align 1, !tbaa !118, !range !120, !noundef !121
  %59 = trunc i8 %58 to i1
  br i1 %59, label %60, label %115

60:                                               ; preds = %57
  %61 = load ptr, ptr %4, align 8, !tbaa !161
  %62 = getelementptr inbounds nuw %struct.easy_pollset, ptr %61, i32 0, i32 1
  %63 = load i32, ptr %62, align 4, !tbaa !163
  %64 = icmp ne i32 %63, 0
  br i1 %64, label %115, label %65

65:                                               ; preds = %60
  %66 = load ptr, ptr %3, align 8, !tbaa !43
  %67 = getelementptr inbounds nuw %struct.Curl_easy, ptr %66, i32 0, i32 21
  %68 = getelementptr inbounds nuw %struct.UrlState, ptr %67, i32 0, i32 24
  %69 = call i64 @Curl_llist_count(ptr noundef %68)
  %70 = icmp ne i64 %69, 0
  br i1 %70, label %115, label %71

71:                                               ; preds = %65
  %72 = load ptr, ptr %3, align 8, !tbaa !43
  %73 = call zeroext i1 @Curl_cwriter_is_paused(ptr noundef %72)
  br i1 %73, label %115, label %74

74:                                               ; preds = %71
  %75 = load ptr, ptr %3, align 8, !tbaa !43
  %76 = call zeroext i1 @Curl_creader_is_paused(ptr noundef %75)
  br i1 %76, label %115, label %77

77:                                               ; preds = %74
  %78 = load ptr, ptr %3, align 8, !tbaa !43
  %79 = call zeroext i1 @Curl_conn_is_ip_connected(ptr noundef %78, i32 noundef 0)
  br i1 %79, label %80, label %115

80:                                               ; preds = %77
  br label %81

81:                                               ; preds = %80
  %82 = load ptr, ptr %3, align 8, !tbaa !43
  %83 = icmp ne ptr %82, null
  br i1 %83, label %84, label %109

84:                                               ; preds = %81
  %85 = load ptr, ptr %3, align 8, !tbaa !43
  %86 = getelementptr inbounds nuw %struct.Curl_easy, ptr %85, i32 0, i32 16
  %87 = getelementptr inbounds nuw %struct.UserDefined, ptr %86, i32 0, i32 119
  %88 = load i64, ptr %87, align 2
  %89 = lshr i64 %88, 31
  %90 = and i64 %89, 1
  %91 = trunc i64 %90 to i32
  %92 = icmp ne i32 %91, 0
  br i1 %92, label %93, label %109

93:                                               ; preds = %84
  %94 = load ptr, ptr %3, align 8, !tbaa !43
  %95 = getelementptr inbounds nuw %struct.Curl_easy, ptr %94, i32 0, i32 21
  %96 = getelementptr inbounds nuw %struct.UrlState, ptr %95, i32 0, i32 50
  %97 = load ptr, ptr %96, align 8, !tbaa !151
  %98 = icmp ne ptr %97, null
  br i1 %98, label %99, label %107

99:                                               ; preds = %93
  %100 = load ptr, ptr %3, align 8, !tbaa !43
  %101 = getelementptr inbounds nuw %struct.Curl_easy, ptr %100, i32 0, i32 21
  %102 = getelementptr inbounds nuw %struct.UrlState, ptr %101, i32 0, i32 50
  %103 = load ptr, ptr %102, align 8, !tbaa !151
  %104 = getelementptr inbounds nuw %struct.curl_trc_feat, ptr %103, i32 0, i32 1
  %105 = load i32, ptr %104, align 8, !tbaa !152
  %106 = icmp sge i32 %105, 1
  br i1 %106, label %107, label %109

107:                                              ; preds = %99, %93
  %108 = load ptr, ptr %3, align 8, !tbaa !43
  call void (ptr, ptr, ...) @Curl_infof(ptr noundef %108, ptr noundef @.str.13)
  br label %109

109:                                              ; preds = %107, %99, %84, %81
  br label %110

110:                                              ; preds = %109
  br label %111

111:                                              ; preds = %110
  br label %112

112:                                              ; preds = %111
  br label %113

113:                                              ; preds = %112
  br label %114

114:                                              ; preds = %113
  br label %115

115:                                              ; preds = %114, %77, %74, %71, %65, %60, %57
  store i32 0, ptr %6, align 4
  br label %116

116:                                              ; preds = %115, %13
  call void @llvm.lifetime.end.p0(i64 1, ptr %5) #9
  %117 = load i32, ptr %6, align 4
  switch i32 %117, label %119 [
    i32 0, label %118
    i32 1, label %118
  ]

118:                                              ; preds = %116, %116
  ret void

119:                                              ; preds = %116
  unreachable
}