; Function Attrs: nounwind uwtable
define internal fastcc void @multi_getsock(ptr noundef %0, ptr noundef %1) unnamed_addr #0 {
  tail call void @Curl_pollset_reset(ptr noundef %0, ptr noundef %1) #19
  %3 = getelementptr inbounds nuw i8, ptr %0, i64 24
  %4 = load ptr, ptr %3, align 8, !tbaa !109
  %.not = icmp eq ptr %4, null
  br i1 %.not, label %.critedge, label %5

5:                                                ; preds = %2
  %6 = getelementptr inbounds nuw i8, ptr %0, i64 96
  %7 = load i32, ptr %6, align 8, !tbaa !98
  switch i32 %7, label %13 [
    i32 0, label %.critedge
    i32 1, label %.critedge
    i32 2, label %.critedge
    i32 3, label %.critedge
    i32 4, label %8
    i32 5, label %14
    i32 6, label %14
    i32 7, label %9
    i32 8, label %9
    i32 9, label %10
    i32 10, label %10
    i32 11, label %11
    i32 12, label %12
    i32 13, label %12
    i32 14, label %.critedge
    i32 15, label %.critedge
    i32 16, label %.critedge
    i32 17, label %.critedge
  ]

8:                                                ; preds = %5
  tail call void @Curl_pollset_add_socks(ptr noundef nonnull %0, ptr noundef %1, ptr noundef nonnull @Curl_resolv_getsock) #19
  br label %.critedge

9:                                                ; preds = %5, %5
  br label %14

10:                                               ; preds = %5, %5
  br label %14

11:                                               ; preds = %5
  br label %14

12:                                               ; preds = %5, %5
  br label %14

13:                                               ; preds = %5
  tail call void (ptr, ptr, ...) @Curl_failf(ptr noundef nonnull %0, ptr noundef nonnull @.str.12, i32 noundef %7) #19
  br label %.critedge

14:                                               ; preds = %5, %5, %9, %10, %11, %12
  %connecting_getsock.sink = phi ptr [ @protocol_getsock, %9 ], [ @doing_getsock, %10 ], [ @domore_getsock, %11 ], [ @perform_getsock, %12 ], [ @connecting_getsock, %5 ], [ @connecting_getsock, %5 ]
  tail call void @Curl_pollset_add_socks(ptr noundef nonnull %0, ptr noundef %1, ptr noundef nonnull %connecting_getsock.sink) #19
  tail call void @Curl_conn_adjust_pollset(ptr noundef nonnull %0, ptr noundef %1) #19
  %15 = getelementptr inbounds nuw i8, ptr %1, i64 20
  %16 = load i32, ptr %15, align 4, !tbaa !146
  %.not41 = icmp eq i32 %16, 0
  br i1 %.not41, label %17, label %.critedge

17:                                               ; preds = %14
  %18 = getelementptr inbounds nuw i8, ptr %0, i64 3584
  %19 = tail call i64 @Curl_llist_count(ptr noundef nonnull %18) #19
  %.not42 = icmp eq i64 %19, 0
  br i1 %.not42, label %20, label %.critedge

20:                                               ; preds = %17
  %21 = tail call zeroext i1 @Curl_cwriter_is_paused(ptr noundef nonnull %0) #19
  br i1 %21, label %.critedge, label %22

22:                                               ; preds = %20
  %23 = tail call zeroext i1 @Curl_creader_is_paused(ptr noundef nonnull %0) #19
  br i1 %23, label %.critedge, label %24

24:                                               ; preds = %22
  %25 = tail call zeroext i1 @Curl_conn_is_ip_connected(ptr noundef nonnull %0, i32 noundef 0) #19
  br i1 %25, label %26, label %.critedge

26:                                               ; preds = %24
  %27 = getelementptr inbounds nuw i8, ptr %0, i64 2658
  %28 = load i64, ptr %27, align 2
  %29 = and i64 %28, 2147483648
  %.not43 = icmp eq i64 %29, 0
  br i1 %.not43, label %.critedge, label %30

30:                                               ; preds = %26
  %31 = getelementptr inbounds nuw i8, ptr %0, i64 4864
  %32 = load ptr, ptr %31, align 8, !tbaa !138
  %.not44 = icmp eq ptr %32, null
  br i1 %.not44, label %37, label %33

33:                                               ; preds = %30
  %34 = getelementptr inbounds nuw i8, ptr %32, i64 8
  %35 = load i32, ptr %34, align 8, !tbaa !139
  %36 = icmp sgt i32 %35, 0
  br i1 %36, label %37, label %.critedge

37:                                               ; preds = %33, %30
  tail call void (ptr, ptr, ...) @Curl_infof(ptr noundef nonnull %0, ptr noundef nonnull @.str.13) #19
  br label %.critedge

.critedge:                                        ; preds = %14, %17, %20, %22, %24, %26, %33, %37, %5, %5, %5, %5, %5, %5, %5, %5, %8, %13, %2
  ret void
}